(dp0
Vsg_bundle_data
p1
(dp2
Vtype
p3
VCustomNonProjectEntity07
p4
sVid
p5
I81
sVsg_system_name
p6
Vtk-config-default2
p7
sVsg_status_list
p8
Vhidden
p9
sVsg_deprecation_message
p10
NssVsg_version_data
p11
(dp12
Vtype
p13
VCustomNonProjectEntity08
p14
sVid
p15
I3546
sVcode
p16
Vv1.6.2
p17
sVsg_status_list
p18
Vprod
p19
sVdescription
p20
V[No wiki release notes found]
p21
sVtags
p22
(lp23
sVsg_detailed_release_notes
p24
NsVsg_documentation
p25
NsVsg_payload
p26
(dp27
Vurl
p28
Vhttps://s3-proxy.shotgunstudio.com/d18c13bf0e59a9a82f18be518a1b6b508bcbd774/6f65b8d7d14fa7f713c86ffa5258d3039924600f/tk-config-default2_v1.6.2.zip?response-content-disposition=filename%3D%22tk-config-default2_v1.6.2.zip%22&x-amz-meta-user-id=42&x-amz-meta-user-type=ApiUser&X-Amz-Algorithm=AWS4-HMAC-SHA256&X-Amz-Credential=ASIAYJG6Z4JIR6NSJIY3%2F20240311%2Fus-west-2%2Fs3%2Faws4_request&X-Amz-Date=20240311T185321Z&X-Amz-SignedHeaders=host&X-Amz-Expires=900&X-Amz-Security-Token=IQoJb3JpZ2luX2VjECsaCXVzLWVhc3QtMSJHMEUCICvBYiMurzY6ITPQuNtzwFoHSNzWiy6Wvtll0vSDNxMdAiEA3JjWVy3OzkuYUoccWhmFmA%2FTbrZikfhdMhXpcNXif50qmAIINBAAGgw1Njk1NTA0MzA4MDEiDORd00w8R246BkUs%2FSr1AQHTGMFQOy%2Btz6BWJm3i5Piumbd9sCnCVtmoEkEbqHNJQTeBsh%2FyWIhU5csBrxG0hJdIaHBF83%2BIA9QseLYQY6qp4%2FhAhi6qJXOluiCHQ%2Ft64bkTZZjs5ZbyFTUHF99c52elrLtqAbSh%2F5WazAzDy%2FPzEhe6crZ1g20XG0dDtNolkr5elSqAkVKQgHLr8T%2F6Ip%2B1i4QIPI3fV%2Bku6WSlTXSspLhFzr3eyL8PnDVe7irWClzrINQizhF4jC157MsNOuTjmME%2BRpi18gLvTEJbH86F74zB3NaIPsTH2Z2iilAnkFveOlSDz3Hb6%2BxQhltjx9IPtTIgMP6bva8GOp0BzuI3Vy6dg6VMMJFcKUCghXx7kVy2eC57AI59%2FDLiRKJvgO3CW78WsC8t7Z3kBmqm5PWAdYBtkEzrmgE9OaWPACTkMWS9Hzc9sxxfompQelLExCvSZJ8ibSyKtJkqA%2BlQ8eSDJs1sIOHmEspX1IxzlNTb8tjvBnvpz9HDXL9WwpWTj1hy4C1m9iPMBjBtlsZA9Cm%2BfJMqxNcSrMdz3w%3D%3D&X-Amz-Signature=3e7bdffefd04a23b60ad51e9c36fca41ec8576972590d1d63135c555ff2de140
p29
sVname
p30
Vtk-config-default2_v1.6.2.zip
p31
sVcontent_type
p32
Vapplication/zip
p33
sVlink_type
p34
Vupload
p35
sg13
VAttachment
p36
sg15
I32154
sss.